target datalayout = "e-m:e-p270:32:32-p271:32:32-p272:64:64-i64:64-i128:128-f80:128-n8:16:32:64-S128"
target triple = "x86_64-pc-linux-gnu"

%struct.stmm_table = type { ptr, ptr, i32, i32, i32, i32, double, ptr, ptr }
%struct.stmm_table_entry = type { ptr, ptr, ptr }

; Function Attrs: nounwind uwtable
define internal i32 @Abc_AbsInt(i32 noundef %0) #0 {
  %2 = alloca i32, align 4
  store i32 %0, ptr %2, align 4
  %3 = load i32, ptr %2, align 4
  %4 = icmp slt i32 %3, 0
  br i1 %4, label %5, label %8

5:                                                ; preds = %1
  %6 = load i32, ptr %2, align 4
  %7 = sub nsw i32 0, %6
  br label %10

8:                                                ; preds = %1
  %9 = load i32, ptr %2, align 4
  br label %10

10:                                               ; preds = %8, %5
  %11 = phi i32 [ %7, %5 ], [ %9, %8 ]
  ret i32 %11
}

; Function Attrs: nounwind uwtable
define i32 @stmm_insert(ptr noundef %0, ptr noundef %1, ptr noundef %2) #0 {
  %4 = alloca i32, align 4
  %5 = alloca ptr, align 8
  %6 = alloca ptr, align 8
  %7 = alloca ptr, align 8
  %8 = alloca i32, align 4
  %9 = alloca ptr, align 8
  %10 = alloca ptr, align 8
  %11 = alloca ptr, align 8
  store ptr %0, ptr %5, align 8
  store ptr %1, ptr %6, align 8
  store ptr %2, ptr %7, align 8
  %12 = load ptr, ptr %5, align 8
  %13 = getelementptr inbounds %struct.stmm_table, ptr %12, i32 0, i32 1
  %14 = load ptr, ptr %13, align 8
  %15 = icmp eq ptr %14, @stmm_ptrhash
  br i1 %15, label %16, label %26

16:                                               ; preds = %3
  %17 = load ptr, ptr %6, align 8
  %18 = ptrtoint ptr %17 to i64
  %19 = lshr i64 %18, 2
  %20 = load ptr, ptr %5, align 8
  %21 = getelementptr inbounds %struct.stmm_table, ptr %20, i32 0, i32 2
  %22 = load i32, ptr %21, align 8
  %23 = sext i32 %22 to i64
  %24 = urem i64 %19, %23
  %25 = trunc i64 %24 to i32
  br label %51

26:                                               ; preds = %3
  %27 = load ptr, ptr %5, align 8
  %28 = getelementptr inbounds %struct.stmm_table, ptr %27, i32 0, i32 1
  %29 = load ptr, ptr %28, align 8
  %30 = icmp eq ptr %29, @stmm_numhash
  br i1 %30, label %31, label %40

31:                                               ; preds = %26
  %32 = load ptr, ptr %6, align 8
  %33 = ptrtoint ptr %32 to i64
  %34 = trunc i64 %33 to i32
  %35 = call i32 @Abc_AbsInt(i32 noundef %34)
  %36 = load ptr, ptr %5, align 8
  %37 = getelementptr inbounds %struct.stmm_table, ptr %36, i32 0, i32 2
  %38 = load i32, ptr %37, align 8
  %39 = srem i32 %35, %38
  br label %49

40:                                               ; preds = %26
  %41 = load ptr, ptr %5, align 8
  %42 = getelementptr inbounds %struct.stmm_table, ptr %41, i32 0, i32 1
  %43 = load ptr, ptr %42, align 8
  %44 = load ptr, ptr %6, align 8
  %45 = load ptr, ptr %5, align 8
  %46 = getelementptr inbounds %struct.stmm_table, ptr %45, i32 0, i32 2
  %47 = load i32, ptr %46, align 8
  %48 = call i32 %43(ptr noundef %44, i32 noundef %47)
  br label %49

49:                                               ; preds = %40, %31
  %50 = phi i32 [ %39, %31 ], [ %48, %40 ]
  br label %51

51:                                               ; preds = %49, %16
  %52 = phi i32 [ %25, %16 ], [ %50, %49 ]
  store i32 %52, ptr %8, align 4
  %53 = load ptr, ptr %5, align 8
  %54 = getelementptr inbounds %struct.stmm_table, ptr %53, i32 0, i32 7
  %55 = load ptr, ptr %54, align 8
  %56 = load i32, ptr %8, align 4
  %57 = sext i32 %56 to i64
  %58 = getelementptr inbounds ptr, ptr %55, i64 %57
  store ptr %58, ptr %11, align 8
  %59 = load ptr, ptr %11, align 8
  %60 = load ptr, ptr %59, align 8
  store ptr %60, ptr %10, align 8
  br label %61

61:                                               ; preds = %100, %51
  %62 = load ptr, ptr %10, align 8
  %63 = icmp ne ptr %62, null
  br i1 %63, label %64, label %98

64:                                               ; preds = %61
  %65 = load ptr, ptr %5, align 8
  %66 = getelementptr inbounds %struct.stmm_table, ptr %65, i32 0, i32 0
  %67 = load ptr, ptr %66, align 8
  %68 = icmp eq ptr %67, @stmm_numcmp
  br i1 %68, label %74, label %69

69:                                               ; preds = %64
  %70 = load ptr, ptr %5, align 8
  %71 = getelementptr inbounds %struct.stmm_table, ptr %70, i32 0, i32 0
  %72 = load ptr, ptr %71, align 8
  %73 = icmp eq ptr %72, @stmm_ptrcmp
  br i1 %73, label %74, label %83

74:                                               ; preds = %69, %64
  %75 = load ptr, ptr %6, align 8
  %76 = load ptr, ptr %10, align 8
  %77 = getelementptr inbounds %struct.stmm_table_entry, ptr %76, i32 0, i32 0
  %78 = load ptr, ptr %77, align 8
  %79 = icmp ne ptr %75, %78
  %80 = zext i1 %79 to i32
  %81 = icmp eq i32 %80, 0
  %82 = zext i1 %81 to i32
  br label %94

83:                                               ; preds = %69
  %84 = load ptr, ptr %5, align 8
  %85 = getelementptr inbounds %struct.stmm_table, ptr %84, i32 0, i32 0
  %86 = load ptr, ptr %85, align 8
  %87 = load ptr, ptr %6, align 8
  %88 = load ptr, ptr %10, align 8
  %89 = getelementptr inbounds %struct.stmm_table_entry, ptr %88, i32 0, i32 0
  %90 = load ptr, ptr %89, align 8
  %91 = call i32 %86(ptr noundef %87, ptr noundef %90)
  %92 = icmp eq i32 %91, 0
  %93 = zext i1 %92 to i32
  br label %94

94:                                               ; preds = %83, %74
  %95 = phi i32 [ %82, %74 ], [ %93, %83 ]
  %96 = icmp ne i32 %95, 0
  %97 = xor i1 %96, true
  br label %98

98:                                               ; preds = %94, %61
  %99 = phi i1 [ false, %61 ], [ %97, %94 ]
  br i1 %99, label %100, label %105

100:                                              ; preds = %98
  %101 = load ptr, ptr %10, align 8
  %102 = getelementptr inbounds %struct.stmm_table_entry, ptr %101, i32 0, i32 2
  store ptr %102, ptr %11, align 8
  %103 = load ptr, ptr %11, align 8
  %104 = load ptr, ptr %103, align 8
  store ptr %104, ptr %10, align 8
  br label %61, !llvm.loop !9

105:                                              ; preds = %98
  %106 = load ptr, ptr %10, align 8
  %107 = icmp ne ptr %106, null
  br i1 %107, label %108, label %134

108:                                              ; preds = %105
  %109 = load ptr, ptr %5, align 8
  %110 = getelementptr inbounds %struct.stmm_table, ptr %109, i32 0, i32 5
  %111 = load i32, ptr %110, align 4
  %112 = icmp ne i32 %111, 0
  br i1 %112, label %113, label %134

113:                                              ; preds = %108
  %114 = load ptr, ptr %10, align 8
  %115 = getelementptr inbounds %struct.stmm_table_entry, ptr %114, i32 0, i32 2
  %116 = load ptr, ptr %115, align 8
  %117 = load ptr, ptr %11, align 8
  store ptr %116, ptr %117, align 8
  %118 = load ptr, ptr %5, align 8
  %119 = getelementptr inbounds %struct.stmm_table, ptr %118, i32 0, i32 7
  %120 = load ptr, ptr %119, align 8
  %121 = load i32, ptr %8, align 4
  %122 = sext i32 %121 to i64
  %123 = getelementptr inbounds ptr, ptr %120, i64 %122
  %124 = load ptr, ptr %123, align 8
  %125 = load ptr, ptr %10, align 8
  %126 = getelementptr inbounds %struct.stmm_table_entry, ptr %125, i32 0, i32 2
  store ptr %124, ptr %126, align 8
  %127 = load ptr, ptr %10, align 8
  %128 = load ptr, ptr %5, align 8
  %129 = getelementptr inbounds %struct.stmm_table, ptr %128, i32 0, i32 7
  %130 = load ptr, ptr %129, align 8
  %131 = load i32, ptr %8, align 4
  %132 = sext i32 %131 to i64
  %133 = getelementptr inbounds ptr, ptr %130, i64 %132
  store ptr %127, ptr %133, align 8
  br label %134

134:                                              ; preds = %113, %108, %105
  %135 = load ptr, ptr %10, align 8
  %136 = icmp eq ptr %135, null
  br i1 %136, label %137, label %231

137:                                              ; preds = %134
  %138 = load ptr, ptr %5, align 8
  %139 = getelementptr inbounds %struct.stmm_table, ptr %138, i32 0, i32 3
  %140 = load i32, ptr %139, align 4
  %141 = load ptr, ptr %5, align 8
  %142 = getelementptr inbounds %struct.stmm_table, ptr %141, i32 0, i32 2
  %143 = load i32, ptr %142, align 8
  %144 = sdiv i32 %140, %143
  %145 = load ptr, ptr %5, align 8
  %146 = getelementptr inbounds %struct.stmm_table, ptr %145, i32 0, i32 4
  %147 = load i32, ptr %146, align 8
  %148 = icmp sge i32 %144, %147
  br i1 %148, label %149, label %196

149:                                              ; preds = %137
  %150 = load ptr, ptr %5, align 8
  %151 = call i32 @rehash(ptr noundef %150)
  %152 = icmp eq i32 %151, -10000
  br i1 %152, label %153, label %154

153:                                              ; preds = %149
  store i32 -10000, ptr %4, align 4
  br label %235

154:                                              ; preds = %149
  %155 = load ptr, ptr %5, align 8
  %156 = getelementptr inbounds %struct.stmm_table, ptr %155, i32 0, i32 1
  %157 = load ptr, ptr %156, align 8
  %158 = icmp eq ptr %157, @stmm_ptrhash
  br i1 %158, label %159, label %169

159:                                              ; preds = %154
  %160 = load ptr, ptr %6, align 8
  %161 = ptrtoint ptr %160 to i64
  %162 = lshr i64 %161, 2
  %163 = load ptr, ptr %5, align 8
  %164 = getelementptr inbounds %struct.stmm_table, ptr %163, i32 0, i32 2
  %165 = load i32, ptr %164, align 8
  %166 = sext i32 %165 to i64
  %167 = urem i64 %162, %166
  %168 = trunc i64 %167 to i32
  br label %194

169:                                              ; preds = %154
  %170 = load ptr, ptr %5, align 8
  %171 = getelementptr inbounds %struct.stmm_table, ptr %170, i32 0, i32 1
  %172 = load ptr, ptr %171, align 8
  %173 = icmp eq ptr %172, @stmm_numhash
  br i1 %173, label %174, label %183

174:                                              ; preds = %169
  %175 = load ptr, ptr %6, align 8
  %176 = ptrtoint ptr %175 to i64
  %177 = trunc i64 %176 to i32
  %178 = call i32 @Abc_AbsInt(i32 noundef %177)
  %179 = load ptr, ptr %5, align 8
  %180 = getelementptr inbounds %struct.stmm_table, ptr %179, i32 0, i32 2
  %181 = load i32, ptr %180, align 8
  %182 = srem i32 %178, %181
  br label %192

183:                                              ; preds = %169
  %184 = load ptr, ptr %5, align 8
  %185 = getelementptr inbounds %struct.stmm_table, ptr %184, i32 0, i32 1
  %186 = load ptr, ptr %185, align 8
  %187 = load ptr, ptr %6, align 8
  %188 = load ptr, ptr %5, align 8
  %189 = getelementptr inbounds %struct.stmm_table, ptr %188, i32 0, i32 2
  %190 = load i32, ptr %189, align 8
  %191 = call i32 %186(ptr noundef %187, i32 noundef %190)
  br label %192

192:                                              ; preds = %183, %174
  %193 = phi i32 [ %182, %174 ], [ %191, %183 ]
  br label %194

194:                                              ; preds = %192, %159
  %195 = phi i32 [ %168, %159 ], [ %193, %192 ]
  store i32 %195, ptr %8, align 4
  br label %196

196:                                              ; preds = %194, %137
  %197 = load ptr, ptr %5, align 8
  %198 = getelementptr inbounds %struct.stmm_table, ptr %197, i32 0, i32 8
  %199 = load ptr, ptr %198, align 8
  %200 = call ptr @Extra_MmFixedEntryFetch(ptr noundef %199)
  store ptr %200, ptr %9, align 8
  %201 = load ptr, ptr %9, align 8
  %202 = icmp eq ptr %201, null
  br i1 %202, label %203, label %204

203:                                              ; preds = %196
  store i32 -10000, ptr %4, align 4
  br label %235

204:                                              ; preds = %196
  %205 = load ptr, ptr %6, align 8
  %206 = load ptr, ptr %9, align 8
  %207 = getelementptr inbounds %struct.stmm_table_entry, ptr %206, i32 0, i32 0
  store ptr %205, ptr %207, align 8
  %208 = load ptr, ptr %7, align 8
  %209 = load ptr, ptr %9, align 8
  %210 = getelementptr inbounds %struct.stmm_table_entry, ptr %209, i32 0, i32 1
  store ptr %208, ptr %210, align 8
  %211 = load ptr, ptr %5, align 8
  %212 = getelementptr inbounds %struct.stmm_table, ptr %211, i32 0, i32 7
  %213 = load ptr, ptr %212, align 8
  %214 = load i32, ptr %8, align 4
  %215 = sext i32 %214 to i64
  %216 = getelementptr inbounds ptr, ptr %213, i64 %215
  %217 = load ptr, ptr %216, align 8
  %218 = load ptr, ptr %9, align 8
  %219 = getelementptr inbounds %struct.stmm_table_entry, ptr %218, i32 0, i32 2
  store ptr %217, ptr %219, align 8
  %220 = load ptr, ptr %9, align 8
  %221 = load ptr, ptr %5, align 8
  %222 = getelementptr inbounds %struct.stmm_table, ptr %221, i32 0, i32 7
  %223 = load ptr, ptr %222, align 8
  %224 = load i32, ptr %8, align 4
  %225 = sext i32 %224 to i64
  %226 = getelementptr inbounds ptr, ptr %223, i64 %225
  store ptr %220, ptr %226, align 8
  %227 = load ptr, ptr %5, align 8
  %228 = getelementptr inbounds %struct.stmm_table, ptr %227, i32 0, i32 3
  %229 = load i32, ptr %228, align 4
  %230 = add nsw i32 %229, 1
  store i32 %230, ptr %228, align 4
  store i32 0, ptr %4, align 4
  br label %235

231:                                              ; preds = %134
  %232 = load ptr, ptr %7, align 8
  %233 = load ptr, ptr %10, align 8
  %234 = getelementptr inbounds %struct.stmm_table_entry, ptr %233, i32 0, i32 1
  store ptr %232, ptr %234, align 8
  store i32 1, ptr %4, align 4
  br label %235

235:                                              ; preds = %231, %204, %203, %153
  %236 = load i32, ptr %4, align 4
  ret i32 %236
}