; Function Attrs: nounwind uwtable
define range(i32 -10000, 2) i32 @stmm_insert(ptr noundef captures(none) %0, ptr noundef %1, ptr noundef %2) local_unnamed_addr #0 {
  %4 = getelementptr inbounds nuw i8, ptr %0, i64 8
  %5 = load ptr, ptr %4, align 8
  %6 = icmp eq ptr %5, @stmm_ptrhash
  br i1 %6, label %7, label %15

7:                                                ; preds = %3
  %8 = ptrtoint ptr %1 to i64
  %9 = lshr i64 %8, 2
  %10 = getelementptr inbounds nuw i8, ptr %0, i64 16
  %11 = load i32, ptr %10, align 8
  %12 = sext i32 %11 to i64
  %13 = urem i64 %9, %12
  %14 = trunc i64 %13 to i32
  br label %28

15:                                               ; preds = %3
  %16 = icmp eq ptr %5, @stmm_numhash
  br i1 %16, label %17, label %24

17:                                               ; preds = %15
  %18 = ptrtoint ptr %1 to i64
  %19 = trunc i64 %18 to i32
  %20 = tail call range(i32 0, -2147483648) i32 @llvm.abs.i32(i32 %19, i1 true)
  %21 = getelementptr inbounds nuw i8, ptr %0, i64 16
  %22 = load i32, ptr %21, align 8
  %23 = srem i32 %20, %22
  br label %28

24:                                               ; preds = %15
  %25 = getelementptr inbounds nuw i8, ptr %0, i64 16
  %26 = load i32, ptr %25, align 8
  %27 = tail call i32 %5(ptr noundef %1, i32 noundef %26) #13
  br label %28

28:                                               ; preds = %17, %24, %7
  %29 = phi i32 [ %14, %7 ], [ %23, %17 ], [ %27, %24 ]
  %30 = getelementptr inbounds nuw i8, ptr %0, i64 40
  %31 = load ptr, ptr %30, align 8
  %32 = sext i32 %29 to i64
  %33 = getelementptr inbounds ptr, ptr %31, i64 %32
  %.06174 = load ptr, ptr %33, align 8
  %.not75 = icmp eq ptr %.06174, null
  br i1 %.not75, label %.critedge71, label %.lr.ph

.lr.ph:                                           ; preds = %28, %42
  %.06177 = phi ptr [ %.061, %42 ], [ %.06174, %28 ]
  %.076 = phi ptr [ %43, %42 ], [ %33, %28 ]
  %34 = load ptr, ptr %0, align 8
  %35 = icmp eq ptr %34, @stmm_numcmp
  %36 = icmp eq ptr %34, @stmm_ptrcmp
  %or.cond = or i1 %35, %36
  %37 = load ptr, ptr %.06177, align 8
  br i1 %or.cond, label %38, label %39

38:                                               ; preds = %.lr.ph
  %.not68 = icmp eq ptr %1, %37
  br i1 %.not68, label %.critedge, label %42

39:                                               ; preds = %.lr.ph
  %40 = tail call i32 %34(ptr noundef %1, ptr noundef %37) #13
  %41 = icmp eq i32 %40, 0
  br i1 %41, label %.critedge, label %42

42:                                               ; preds = %38, %39
  %43 = getelementptr inbounds nuw i8, ptr %.06177, i64 16
  %.061 = load ptr, ptr %43, align 8
  %.not = icmp eq ptr %.061, null
  br i1 %.not, label %.critedge71, label %.lr.ph, !llvm.loop !8

.critedge:                                        ; preds = %39, %38
  %44 = getelementptr inbounds nuw i8, ptr %0, i64 28
  %45 = load i32, ptr %44, align 4
  %.not69 = icmp eq i32 %45, 0
  br i1 %.not69, label %101, label %46

46:                                               ; preds = %.critedge
  %47 = getelementptr inbounds nuw i8, ptr %.06177, i64 16
  %48 = load ptr, ptr %47, align 8
  store ptr %48, ptr %.076, align 8
  %49 = load ptr, ptr %30, align 8
  %50 = getelementptr inbounds ptr, ptr %49, i64 %32
  %51 = load ptr, ptr %50, align 8
  store ptr %51, ptr %47, align 8
  %52 = load ptr, ptr %30, align 8
  %53 = getelementptr inbounds ptr, ptr %52, i64 %32
  store ptr %.06177, ptr %53, align 8
  br label %101

.critedge71:                                      ; preds = %42, %28
  %54 = getelementptr inbounds nuw i8, ptr %0, i64 20
  %55 = load i32, ptr %54, align 4
  %56 = getelementptr inbounds nuw i8, ptr %0, i64 16
  %57 = load i32, ptr %56, align 8
  %58 = sdiv i32 %55, %57
  %59 = getelementptr inbounds nuw i8, ptr %0, i64 24
  %60 = load i32, ptr %59, align 8
  %.not70 = icmp slt i32 %58, %60
  br i1 %.not70, label %85, label %61

61:                                               ; preds = %.critedge71
  %62 = tail call fastcc i32 @rehash(ptr noundef nonnull %0)
  %63 = icmp eq i32 %62, -10000
  br i1 %63, label %103, label %64

64:                                               ; preds = %61
  %65 = load ptr, ptr %4, align 8
  %66 = icmp eq ptr %65, @stmm_ptrhash
  br i1 %66, label %67, label %74

67:                                               ; preds = %64
  %68 = ptrtoint ptr %1 to i64
  %69 = lshr i64 %68, 2
  %70 = load i32, ptr %56, align 8
  %71 = sext i32 %70 to i64
  %72 = urem i64 %69, %71
  %73 = trunc i64 %72 to i32
  br label %85

74:                                               ; preds = %64
  %75 = icmp eq ptr %65, @stmm_numhash
  br i1 %75, label %76, label %82

76:                                               ; preds = %74
  %77 = ptrtoint ptr %1 to i64
  %78 = trunc i64 %77 to i32
  %79 = tail call range(i32 0, -2147483648) i32 @llvm.abs.i32(i32 %78, i1 true)
  %80 = load i32, ptr %56, align 8
  %81 = srem i32 %79, %80
  br label %85

82:                                               ; preds = %74
  %83 = load i32, ptr %56, align 8
  %84 = tail call i32 %65(ptr noundef %1, i32 noundef %83) #13
  br label %85

85:                                               ; preds = %67, %82, %76, %.critedge71
  %.063 = phi i32 [ %29, %.critedge71 ], [ %73, %67 ], [ %81, %76 ], [ %84, %82 ]
  %86 = getelementptr inbounds nuw i8, ptr %0, i64 48
  %87 = load ptr, ptr %86, align 8
  %88 = tail call ptr @Extra_MmFixedEntryFetch(ptr noundef %87) #13
  %89 = icmp eq ptr %88, null
  br i1 %89, label %103, label %90

90:                                               ; preds = %85
  store ptr %1, ptr %88, align 8
  %91 = getelementptr inbounds nuw i8, ptr %88, i64 8
  store ptr %2, ptr %91, align 8
  %92 = load ptr, ptr %30, align 8
  %93 = sext i32 %.063 to i64
  %94 = getelementptr inbounds ptr, ptr %92, i64 %93
  %95 = load ptr, ptr %94, align 8
  %96 = getelementptr inbounds nuw i8, ptr %88, i64 16
  store ptr %95, ptr %96, align 8
  %97 = load ptr, ptr %30, align 8
  %98 = getelementptr inbounds ptr, ptr %97, i64 %93
  store ptr %88, ptr %98, align 8
  %99 = load i32, ptr %54, align 4
  %100 = add nsw i32 %99, 1
  store i32 %100, ptr %54, align 4
  br label %103

101:                                              ; preds = %46, %.critedge
  %102 = getelementptr inbounds nuw i8, ptr %.06177, i64 8
  store ptr %2, ptr %102, align 8
  br label %103

103:                                              ; preds = %85, %61, %101, %90
  %.062 = phi i32 [ 0, %90 ], [ 1, %101 ], [ -10000, %61 ], [ -10000, %85 ]
  ret i32 %.062
}